target datalayout = "e-m:e-p270:32:32-p271:32:32-p272:64:64-i64:64-i128:128-f80:128-n8:16:32:64-S128"
target triple = "x86_64-pc-linux-gnu"

%struct.ASN1_TEMPLATE_st = type { i64, i64, i64, ptr, ptr }

@.str = private unnamed_addr constant [126 x i8] c"generated/home/dtcxzyw/WorkSpace/Projects/compilers/llvm-opt-benchmark/bench/libquic/libquic/boringssl/crypto/asn1/tasn_new.c\00", align 1

; Function Attrs: nounwind uwtable
define hidden i32 @ASN1_template_new(ptr noundef %0, ptr noundef %1) #0 {
  %3 = alloca i32, align 4
  %4 = alloca ptr, align 8
  %5 = alloca ptr, align 8
  %6 = alloca ptr, align 8
  %7 = alloca i32, align 4
  %8 = alloca i32, align 4
  %9 = alloca ptr, align 8
  store ptr %0, ptr %4, align 8, !tbaa !13
  store ptr %1, ptr %5, align 8, !tbaa !17
  call void @llvm.lifetime.start.p0(i64 8, ptr %6) #5
  %10 = load ptr, ptr %5, align 8, !tbaa !17
  %11 = getelementptr inbounds nuw %struct.ASN1_TEMPLATE_st, ptr %10, i32 0, i32 4
  %12 = load ptr, ptr %11, align 8, !tbaa !42
  store ptr %12, ptr %6, align 8, !tbaa !6
  call void @llvm.lifetime.start.p0(i64 4, ptr %7) #5
  %13 = load ptr, ptr %5, align 8, !tbaa !17
  %14 = getelementptr inbounds nuw %struct.ASN1_TEMPLATE_st, ptr %13, i32 0, i32 0
  %15 = load i64, ptr %14, align 8, !tbaa !44
  %16 = and i64 %15, 1
  %17 = icmp ne i64 %16, 0
  br i1 %17, label %18, label %21

18:                                               ; preds = %2
  %19 = load ptr, ptr %4, align 8, !tbaa !13
  %20 = load ptr, ptr %5, align 8, !tbaa !17
  call void @asn1_template_clear(ptr noundef %19, ptr noundef %20)
  store i32 1, ptr %3, align 4
  store i32 1, ptr %8, align 4
  br label %56

21:                                               ; preds = %2
  %22 = load ptr, ptr %5, align 8, !tbaa !17
  %23 = getelementptr inbounds nuw %struct.ASN1_TEMPLATE_st, ptr %22, i32 0, i32 0
  %24 = load i64, ptr %23, align 8, !tbaa !44
  %25 = and i64 %24, 768
  %26 = icmp ne i64 %25, 0
  br i1 %26, label %27, label %29

27:                                               ; preds = %21
  %28 = load ptr, ptr %4, align 8, !tbaa !13
  store ptr null, ptr %28, align 8, !tbaa !11
  store i32 1, ptr %3, align 4
  store i32 1, ptr %8, align 4
  br label %56

29:                                               ; preds = %21
  %30 = load ptr, ptr %5, align 8, !tbaa !17
  %31 = getelementptr inbounds nuw %struct.ASN1_TEMPLATE_st, ptr %30, i32 0, i32 0
  %32 = load i64, ptr %31, align 8, !tbaa !44
  %33 = and i64 %32, 6
  %34 = icmp ne i64 %33, 0
  br i1 %34, label %35, label %45

35:                                               ; preds = %29
  call void @llvm.lifetime.start.p0(i64 8, ptr %9) #5
  %36 = call ptr @sk_new_null()
  store ptr %36, ptr %9, align 8, !tbaa !45
  %37 = load ptr, ptr %9, align 8, !tbaa !45
  %38 = icmp ne ptr %37, null
  br i1 %38, label %40, label %39

39:                                               ; preds = %35
  call void @ERR_put_error(i32 noundef 12, i32 noundef 0, i32 noundef 65, ptr noundef @.str, i32 noundef 277)
  store i32 0, ptr %7, align 4, !tbaa !15
  store i32 2, ptr %8, align 4
  br label %43

40:                                               ; preds = %35
  %41 = load ptr, ptr %9, align 8, !tbaa !45
  %42 = load ptr, ptr %4, align 8, !tbaa !13
  store ptr %41, ptr %42, align 8, !tbaa !11
  store i32 1, ptr %7, align 4, !tbaa !15
  store i32 2, ptr %8, align 4
  br label %43

43:                                               ; preds = %40, %39
  call void @llvm.lifetime.end.p0(i64 8, ptr %9) #5
  %44 = load i32, ptr %8, align 4
  switch i32 %44, label %56 [
    i32 2, label %54
  ]

45:                                               ; preds = %29
  %46 = load ptr, ptr %4, align 8, !tbaa !13
  %47 = load ptr, ptr %6, align 8, !tbaa !6
  %48 = load ptr, ptr %5, align 8, !tbaa !17
  %49 = getelementptr inbounds nuw %struct.ASN1_TEMPLATE_st, ptr %48, i32 0, i32 0
  %50 = load i64, ptr %49, align 8, !tbaa !44
  %51 = and i64 %50, 1024
  %52 = trunc i64 %51 to i32
  %53 = call i32 @asn1_item_ex_combine_new(ptr noundef %46, ptr noundef %47, i32 noundef %52)
  store i32 %53, ptr %7, align 4, !tbaa !15
  br label %54

54:                                               ; preds = %45, %43
  %55 = load i32, ptr %7, align 4, !tbaa !15
  store i32 %55, ptr %3, align 4
  store i32 1, ptr %8, align 4
  br label %56

56:                                               ; preds = %54, %43, %27, %18
  call void @llvm.lifetime.end.p0(i64 4, ptr %7) #5
  call void @llvm.lifetime.end.p0(i64 8, ptr %6) #5
  %57 = load i32, ptr %3, align 4
  ret i32 %57
}