; Function Attrs: nounwind uwtable
define hidden range(i32 0, 2) i32 @ASN1_template_new(ptr noundef %0, ptr noundef readonly captures(none) %1) local_unnamed_addr #0 {
  %3 = getelementptr inbounds nuw i8, ptr %1, i64 32
  %4 = load ptr, ptr %3, align 8, !tbaa !25
  %5 = load i64, ptr %1, align 8, !tbaa !28
  %6 = and i64 %5, 1
  %.not = icmp eq i64 %6, 0
  br i1 %.not, label %8, label %7

7:                                                ; preds = %2
  tail call fastcc void @asn1_template_clear(ptr noundef %0, ptr noundef nonnull %1)
  br label %21

8:                                                ; preds = %2
  %9 = and i64 %5, 768
  %.not18 = icmp eq i64 %9, 0
  br i1 %.not18, label %11, label %10

10:                                               ; preds = %8
  store ptr null, ptr %0, align 8, !tbaa !6
  br label %21

11:                                               ; preds = %8
  %12 = and i64 %5, 6
  %.not19 = icmp eq i64 %12, 0
  br i1 %.not19, label %17, label %13

13:                                               ; preds = %11
  %14 = tail call ptr @sk_new_null() #5
  %.not20 = icmp eq ptr %14, null
  br i1 %.not20, label %15, label %16

15:                                               ; preds = %13
  tail call void @ERR_put_error(i32 noundef 12, i32 noundef 0, i32 noundef 65, ptr noundef nonnull @.str, i32 noundef 277) #5
  br label %21

16:                                               ; preds = %13
  store ptr %14, ptr %0, align 8, !tbaa !6
  br label %21

17:                                               ; preds = %11
  %18 = trunc i64 %5 to i32
  %19 = and i32 %18, 1024
  %20 = tail call fastcc i32 @asn1_item_ex_combine_new(ptr noundef %0, ptr noundef %4, i32 noundef %19)
  br label %21

21:                                               ; preds = %17, %16, %15, %10, %7
  %.0 = phi i32 [ 1, %7 ], [ 1, %10 ], [ %20, %17 ], [ 1, %16 ], [ 0, %15 ]
  ret i32 %.0
}